(lp0
S'NI16M_2016-05-24.csv'
p1
aS'NI16M_2016-05-26.csv'
p2
aS'NI16M_2016-05-27.csv'
p3
aS'NI16M_2016-05-31.csv'
p4
aS'NI16M_2016-06-01.csv'
p5
aS'NI16M_2016-06-02.csv'
p6
aS'NI16M_2016-06-03.csv'
p7
aS'NI16M_2016-06-06.csv'
p8
aS'NI16M_2016-06-07.csv'
p9
aS'NI16M_2016-06-08.csv'
p10
aS'NI16M_2016-06-09.csv'
p11
aS'NI16U_2016-06-08.csv'
p12
aS'NI16U_2016-06-09.csv'
p13
aS'NI16U_2016-06-10.csv'
p14
aS'NI16U_2016-06-13.csv'
p15
aS'NI16U_2016-06-14.csv'
p16
aS'NI16U_2016-06-15.csv'
p17
aS'NI16U_2016-06-16.csv'
p18
aS'NI16U_2016-06-17.csv'
p19
aS'NI16U_2016-06-20.csv'
p20
aS'NI16U_2016-06-21.csv'
p21
aS'NI16U_2016-06-22.csv'
p22
aS'NI16U_2016-06-23.csv'
p23
aS'NI16U_2016-06-24.csv'
p24
aS'NI16U_2016-06-27.csv'
p25
aS'NI16U_2016-06-28.csv'
p26
aS'NI16U_2016-06-29.csv'
p27
aS'NI16U_2016-06-30.csv'
p28
aS'NI16U_2016-07-01.csv'
p29
aS'NI16U_2016-07-04.csv'
p30
aS'NI16U_2016-07-05.csv'
p31
aS'NI16U_2016-07-06.csv'
p32
aS'NI16U_2016-07-07.csv'
p33
aS'NI16U_2016-07-08.csv'
p34
aS'NI16U_2016-07-11.csv'
p35
aS'NI16U_2016-07-12.csv'
p36
aS'NI16U_2016-07-13.csv'
p37
aS'NI16U_2016-07-14.csv'
p38
aS'NI16U_2016-07-15.csv'
p39
aS'NI16U_2016-07-18.csv'
p40
aS'NI16U_2016-07-19.csv'
p41
aS'NI16U_2016-07-20.csv'
p42
aS'NI16U_2016-07-21.csv'
p43
aS'NI16U_2016-07-22.csv'
p44
aS'NI16U_2016-07-25.csv'
p45
aS'NI16U_2016-07-26.csv'
p46
aS'NI16U_2016-07-27.csv'
p47
aS'NI16U_2016-07-28.csv'
p48
aS'NI16U_2016-07-29.csv'
p49
aS'NI16U_2016-08-01.csv'
p50
aS'NI16U_2016-08-02.csv'
p51
aS'NI16U_2016-08-03.csv'
p52
aS'NI16U_2016-08-04.csv'
p53
aS'NI16U_2016-08-05.csv'
p54
aS'NI16U_2016-08-08.csv'
p55
aS'NI16U_2016-08-09.csv'
p56
aS'NI16U_2016-08-10.csv'
p57
aS'NI16U_2016-08-11.csv'
p58
aS'NI16U_2016-08-12.csv'
p59
aS'NI16U_2016-08-15.csv'
p60
aS'NI16U_2016-08-16.csv'
p61
aS'NI16U_2016-08-17.csv'
p62
aS'NI16U_2016-08-18.csv'
p63
aS'NI16U_2016-08-19.csv'
p64
aS'NI16U_2016-08-22.csv'
p65
aS'NI16U_2016-08-23.csv'
p66
aS'NI16U_2016-08-24.csv'
p67
aS'NI16U_2016-08-25.csv'
p68
aS'NI16U_2016-08-26.csv'
p69
aS'NI16U_2016-08-29.csv'
p70
aS'NI16U_2016-08-30.csv'
p71
aS'NI16U_2016-08-31.csv'
p72
aS'NI16U_2016-09-01.csv'
p73
aS'NI16U_2016-09-02.csv'
p74
aS'NI16U_2016-09-05.csv'
p75
aS'NI16U_2016-09-06.csv'
p76
aS'NI16U_2016-09-07.csv'
p77
aS'NI16U_2016-09-08.csv'
p78
aS'NI16Z_2016-09-08.csv'
p79
aS'NI16Z_2016-09-09.csv'
p80
aS'NI16Z_2016-09-12.csv'
p81
aS'NI16Z_2016-09-13.csv'
p82
aS'NI16Z_2016-09-14.csv'
p83
aS'NI16Z_2016-09-15.csv'
p84
aS'NI16Z_2016-09-16.csv'
p85
aS'NI16Z_2016-09-19.csv'
p86
aS'NI16Z_2016-09-20.csv'
p87
aS'NI16Z_2016-09-21.csv'
p88
aS'NI16Z_2016-09-22.csv'
p89
aS'NI16Z_2016-09-23.csv'
p90
aS'NI16Z_2016-09-26.csv'
p91
aS'NI16Z_2016-09-27.csv'
p92
aS'NI16Z_2016-09-28.csv'
p93
aS'NI16Z_2016-09-29.csv'
p94
aS'NI16Z_2016-09-30.csv'
p95
aS'NI16Z_2016-10-03.csv'
p96
aS'NI16Z_2016-10-04.csv'
p97
aS'NI16Z_2016-10-05.csv'
p98
aS'NI16Z_2016-10-06.csv'
p99
aS'NI16Z_2016-10-07.csv'
p100
aS'NI16Z_2016-10-11.csv'
p101
aS'NI16Z_2016-10-12.csv'
p102
aS'NI16Z_2016-10-13.csv'
p103
aS'NI16Z_2016-10-14.csv'
p104
aS'NI16Z_2016-10-17.csv'
p105
aS'NI16Z_2016-10-18.csv'
p106
aS'NI16Z_2016-10-19.csv'
p107
aS'NI16Z_2016-10-20.csv'
p108
aS'NI16Z_2016-10-21.csv'
p109
aS'NI16Z_2016-10-24.csv'
p110
aS'NI16Z_2016-10-25.csv'
p111
aS'NI16Z_2016-10-26.csv'
p112
aS'NI16Z_2016-10-27.csv'
p113
aS'NI16Z_2016-10-28.csv'
p114
aS'NI16Z_2016-10-31.csv'
p115
aS'NI16Z_2016-11-01.csv'
p116
aS'NI16Z_2016-11-02.csv'
p117
aS'NI16Z_2016-11-03.csv'
p118
aS'NI16Z_2016-11-04.csv'
p119
aS'NI16Z_2016-11-07.csv'
p120
aS'NI16Z_2016-11-08.csv'
p121
aS'NI16Z_2016-11-09.csv'
p122
aS'NI16Z_2016-11-10.csv'
p123
aS'NI16Z_2016-11-11.csv'
p124
aS'NI16Z_2016-11-14.csv'
p125
aS'NI16Z_2016-11-15.csv'
p126
aS'NI16Z_2016-11-16.csv'
p127
aS'NI16Z_2016-11-17.csv'
p128
aS'NI16Z_2016-11-18.csv'
p129
aS'NI16Z_2016-11-21.csv'
p130
aS'NI16Z_2016-11-22.csv'
p131
aS'NI16Z_2016-11-23.csv'
p132
aS'NI16Z_2016-11-24.csv'
p133
aS'NI16Z_2016-11-25.csv'
p134
aS'NI16Z_2016-11-28.csv'
p135
aS'NI16Z_2016-11-29.csv'
p136
aS'NI16Z_2016-11-30.csv'
p137
aS'NI16Z_2016-12-01.csv'
p138
aS'NI16Z_2016-12-02.csv'
p139
aS'NI16Z_2016-12-05.csv'
p140
aS'NI16Z_2016-12-06.csv'
p141
aS'NI16Z_2016-12-07.csv'
p142
aS'OF_1.py'
p143
aS'PoW_OFSample.xlsx'
p144
a.